; Function Attrs: nounwind uwtable
define ptr @l_Array_forIn_x27Unsafe_loop___at_Lean_Server_combineIdents_useConstRepresentatives___spec__23___boxed(ptr noundef %0, ptr noundef %1, ptr noundef %2, ptr noundef %3, ptr noundef %4, ptr noundef %5, ptr noundef %6, ptr noundef %7) local_unnamed_addr #0 {
  %9 = getelementptr i8, ptr %0, i64 8
  %.val33 = load i64, ptr %9, align 8, !tbaa !13
  %10 = ptrtoint ptr %0 to i64
  %11 = and i64 %10, 1
  %.not = icmp eq i64 %11, 0
  br i1 %.not, label %12, label %lean_dec.exit21

12:                                               ; preds = %8
  %13 = load i32, ptr %0, align 4, !tbaa !8
  %14 = icmp sgt i32 %13, 1
  br i1 %14, label %15, label %17, !prof !11

15:                                               ; preds = %12
  %16 = add nsw i32 %13, -1
  store i32 %16, ptr %0, align 4, !tbaa !8
  br label %lean_dec.exit21

17:                                               ; preds = %12
  %.not.i = icmp eq i32 %13, 0
  br i1 %.not.i, label %lean_dec.exit21, label %18

18:                                               ; preds = %17
  tail call void @lean_dec_ref_cold(ptr noundef nonnull %0) #8
  br label %lean_dec.exit21

lean_dec.exit21:                                  ; preds = %18, %17, %15, %8
  %19 = getelementptr i8, ptr %5, i64 8
  %.val32 = load i64, ptr %19, align 8, !tbaa !13
  %20 = ptrtoint ptr %5 to i64
  %21 = and i64 %20, 1
  %.not34 = icmp eq i64 %21, 0
  br i1 %.not34, label %22, label %lean_dec.exit20

22:                                               ; preds = %lean_dec.exit21
  %23 = load i32, ptr %5, align 4, !tbaa !8
  %24 = icmp sgt i32 %23, 1
  br i1 %24, label %25, label %27, !prof !11

25:                                               ; preds = %22
  %26 = add nsw i32 %23, -1
  store i32 %26, ptr %5, align 4, !tbaa !8
  br label %lean_dec.exit20

27:                                               ; preds = %22
  %.not.i22 = icmp eq i32 %23, 0
  br i1 %.not.i22, label %lean_dec.exit20, label %28

28:                                               ; preds = %27
  tail call void @lean_dec_ref_cold(ptr noundef nonnull %5) #8
  br label %lean_dec.exit20

lean_dec.exit20:                                  ; preds = %28, %27, %25, %lean_dec.exit21
  %29 = getelementptr i8, ptr %6, i64 8
  %.val = load i64, ptr %29, align 8, !tbaa !13
  %30 = ptrtoint ptr %6 to i64
  %31 = and i64 %30, 1
  %.not35 = icmp eq i64 %31, 0
  br i1 %.not35, label %32, label %lean_dec.exit19

32:                                               ; preds = %lean_dec.exit20
  %33 = load i32, ptr %6, align 4, !tbaa !8
  %34 = icmp sgt i32 %33, 1
  br i1 %34, label %35, label %37, !prof !11

35:                                               ; preds = %32
  %36 = add nsw i32 %33, -1
  store i32 %36, ptr %6, align 4, !tbaa !8
  br label %lean_dec.exit19

37:                                               ; preds = %32
  %.not.i24 = icmp eq i32 %33, 0
  br i1 %.not.i24, label %lean_dec.exit19, label %38

38:                                               ; preds = %37
  tail call void @lean_dec_ref_cold(ptr noundef nonnull %6) #8
  br label %lean_dec.exit19

lean_dec.exit19:                                  ; preds = %38, %37, %35, %lean_dec.exit20
  %39 = tail call ptr @l_Array_forIn_x27Unsafe_loop___at_Lean_Server_combineIdents_useConstRepresentatives___spec__23(i64 noundef %.val33, ptr noundef %1, ptr poison, ptr poison, ptr noundef %4, i64 noundef %.val32, i64 noundef %.val, ptr noundef %7)
  %40 = ptrtoint ptr %4 to i64
  %41 = and i64 %40, 1
  %.not36 = icmp eq i64 %41, 0
  br i1 %.not36, label %42, label %lean_dec.exit18

42:                                               ; preds = %lean_dec.exit19
  %43 = load i32, ptr %4, align 4, !tbaa !8
  %44 = icmp sgt i32 %43, 1
  br i1 %44, label %45, label %47, !prof !11

45:                                               ; preds = %42
  %46 = add nsw i32 %43, -1
  store i32 %46, ptr %4, align 4, !tbaa !8
  br label %lean_dec.exit18

47:                                               ; preds = %42
  %.not.i26 = icmp eq i32 %43, 0
  br i1 %.not.i26, label %lean_dec.exit18, label %48

48:                                               ; preds = %47
  tail call void @lean_dec_ref_cold(ptr noundef nonnull %4) #8
  br label %lean_dec.exit18

lean_dec.exit18:                                  ; preds = %48, %47, %45, %lean_dec.exit19
  %49 = ptrtoint ptr %3 to i64
  %50 = and i64 %49, 1
  %.not37 = icmp eq i64 %50, 0
  br i1 %.not37, label %51, label %lean_dec.exit17

51:                                               ; preds = %lean_dec.exit18
  %52 = load i32, ptr %3, align 4, !tbaa !8
  %53 = icmp sgt i32 %52, 1
  br i1 %53, label %54, label %56, !prof !11

54:                                               ; preds = %51
  %55 = add nsw i32 %52, -1
  store i32 %55, ptr %3, align 4, !tbaa !8
  br label %lean_dec.exit17

56:                                               ; preds = %51
  %.not.i28 = icmp eq i32 %52, 0
  br i1 %.not.i28, label %lean_dec.exit17, label %57

57:                                               ; preds = %56
  tail call void @lean_dec_ref_cold(ptr noundef nonnull %3) #8
  br label %lean_dec.exit17

lean_dec.exit17:                                  ; preds = %57, %56, %54, %lean_dec.exit18
  %58 = ptrtoint ptr %2 to i64
  %59 = and i64 %58, 1
  %.not38 = icmp eq i64 %59, 0
  br i1 %.not38, label %60, label %lean_dec.exit

60:                                               ; preds = %lean_dec.exit17
  %61 = load i32, ptr %2, align 4, !tbaa !8
  %62 = icmp sgt i32 %61, 1
  br i1 %62, label %63, label %65, !prof !11

63:                                               ; preds = %60
  %64 = add nsw i32 %61, -1
  store i32 %64, ptr %2, align 4, !tbaa !8
  br label %lean_dec.exit

65:                                               ; preds = %60
  %.not.i30 = icmp eq i32 %61, 0
  br i1 %.not.i30, label %lean_dec.exit, label %66

66:                                               ; preds = %65
  tail call void @lean_dec_ref_cold(ptr noundef nonnull %2) #8
  br label %lean_dec.exit

lean_dec.exit:                                    ; preds = %66, %65, %63, %lean_dec.exit17
  ret ptr %39
}